; Function Attrs: mustprogress uwtable
define noundef zeroext i1 @_ZN6Jipopt11eval_grad_fEiPKdbPd(ptr noundef nonnull readonly align 8 captures(none) dereferenceable(232) %0, i32 noundef %1, ptr noundef %2, i1 noundef zeroext %3, ptr noundef %4) unnamed_addr #3 align 2 {
  br i1 %3, label %6, label %14

6:                                                ; preds = %5
  %7 = getelementptr inbounds nuw i8, ptr %0, i64 16
  %8 = load ptr, ptr %7, align 8, !tbaa !10
  %9 = getelementptr inbounds nuw i8, ptr %0, i64 80
  %10 = load ptr, ptr %9, align 8, !tbaa !94
  %11 = load ptr, ptr %8, align 8, !tbaa !48
  %12 = getelementptr inbounds nuw i8, ptr %11, i64 1712
  %13 = load ptr, ptr %12, align 8, !tbaa !98
  tail call void %13(ptr noundef nonnull align 8 dereferenceable(8) %8, ptr noundef %10, i32 noundef 0, i32 noundef %1, ptr noundef %2)
  br label %14

14:                                               ; preds = %6, %5
  %15 = getelementptr inbounds nuw i8, ptr %0, i64 16
  %16 = load ptr, ptr %15, align 8, !tbaa !10
  %17 = getelementptr inbounds nuw i8, ptr %0, i64 24
  %18 = load ptr, ptr %17, align 8, !tbaa !20
  %19 = getelementptr inbounds nuw i8, ptr %0, i64 168
  %20 = load ptr, ptr %19, align 8, !tbaa !57
  %21 = getelementptr inbounds nuw i8, ptr %0, i64 80
  %22 = load ptr, ptr %21, align 8, !tbaa !94
  %23 = zext i1 %3 to i32
  %24 = getelementptr inbounds nuw i8, ptr %0, i64 96
  %25 = load ptr, ptr %24, align 8, !tbaa !100
  %26 = tail call noundef zeroext i8 (ptr, ptr, ptr, ...) @_ZN7JNIEnv_17CallBooleanMethodEP8_jobjectP10_jmethodIDz(ptr noundef nonnull align 8 dereferenceable(8) %16, ptr noundef %18, ptr noundef %20, i32 noundef %1, ptr noundef %22, i32 noundef %23, ptr noundef %25)
  %.not = icmp ne i8 %26, 0
  br i1 %.not, label %27, label %33

27:                                               ; preds = %14
  %28 = load ptr, ptr %15, align 8, !tbaa !10
  %29 = load ptr, ptr %24, align 8, !tbaa !100
  %30 = load ptr, ptr %28, align 8, !tbaa !48
  %31 = getelementptr inbounds nuw i8, ptr %30, i64 1648
  %32 = load ptr, ptr %31, align 8, !tbaa !92
  tail call void %32(ptr noundef nonnull align 8 dereferenceable(8) %28, ptr noundef %29, i32 noundef 0, i32 noundef %1, ptr noundef %4)
  br label %33

33:                                               ; preds = %14, %27
  ret i1 %.not
}